; Function Attrs: mustprogress uwtable
define internal void @_ZN7testing8internal30ValuesInIteratorRangeGeneratorIN11opencv_test12_GLOBAL__N_18CvtMode3EE8Iterator7AdvanceEv(ptr noundef nonnull align 8 captures(none) dereferenceable(32) %0) unnamed_addr #4 align 2 {
  %2 = getelementptr inbounds nuw i8, ptr %0, i64 16
  %3 = load ptr, ptr %2, align 8, !tbaa !795
  %4 = getelementptr inbounds nuw i8, ptr %3, i64 4
  store ptr %4, ptr %2, align 8, !tbaa !795
  %5 = getelementptr inbounds nuw i8, ptr %0, i64 24
  %6 = load ptr, ptr %5, align 8, !tbaa !794
  %.not.i = icmp eq ptr %6, null
  br i1 %.not.i, label %_ZN7testing8internal10scoped_ptrIKN11opencv_test12_GLOBAL__N_18CvtMode3EE5resetEPS5_.exit, label %7

7:                                                ; preds = %1
  %8 = tail call noundef zeroext i1 @_ZN7testing8internal6IsTrueEb(i1 noundef zeroext true)
  br i1 %8, label %9, label %13

9:                                                ; preds = %7
  %10 = load ptr, ptr %5, align 8, !tbaa !794
  %11 = icmp eq ptr %10, null
  br i1 %11, label %13, label %12

12:                                               ; preds = %9
  tail call void @_ZdlPv(ptr noundef nonnull %10) #33
  br label %13

13:                                               ; preds = %12, %9, %7
  store ptr null, ptr %5, align 8, !tbaa !794
  br label %_ZN7testing8internal10scoped_ptrIKN11opencv_test12_GLOBAL__N_18CvtMode3EE5resetEPS5_.exit

_ZN7testing8internal10scoped_ptrIKN11opencv_test12_GLOBAL__N_18CvtMode3EE5resetEPS5_.exit: ; preds = %1, %13
  ret void
}